; Function Attrs: mustprogress nofree norecurse nosync nounwind willreturn memory(read, inaccessiblemem: none) uwtable
define hidden noundef i32 @_Z13linear_searchPK5ArrayIP6MethodEPK6Symbol(ptr nocapture noundef readonly %0, ptr noundef readnone %1) local_unnamed_addr #3 {
  %3 = load i32, ptr %0, align 8
  %4 = getelementptr inbounds i8, ptr %0, i64 8
  %.not.not11 = icmp sgt i32 %3, 0
  br i1 %.not.not11, label %.lr.ph.preheader, label %._crit_edge

.lr.ph.preheader:                                 ; preds = %2
  %wide.trip.count = zext nneg i32 %3 to i64
  br label %.lr.ph

.lr.ph:                                           ; preds = %.lr.ph.preheader, %18
  %indvars.iv = phi i64 [ 0, %.lr.ph.preheader ], [ %indvars.iv.next, %18 ]
  %5 = getelementptr inbounds ptr, ptr %4, i64 %indvars.iv
  %6 = load ptr, ptr %5, align 8
  %7 = getelementptr inbounds i8, ptr %6, i64 8
  %8 = load ptr, ptr %7, align 8
  %9 = getelementptr inbounds i8, ptr %8, i64 8
  %10 = load ptr, ptr %9, align 8
  %11 = getelementptr inbounds i8, ptr %8, i64 36
  %12 = load i16, ptr %11, align 4
  %13 = getelementptr inbounds i8, ptr %10, i64 72
  %14 = zext i16 %12 to i64
  %15 = getelementptr inbounds i64, ptr %13, i64 %14
  %16 = load ptr, ptr %15, align 8
  %17 = icmp eq ptr %16, %1
  br i1 %17, label %._crit_edge.loopexit.split.loop.exit16, label %18

18:                                               ; preds = %.lr.ph
  %indvars.iv.next = add nuw nsw i64 %indvars.iv, 1
  %exitcond.not = icmp eq i64 %indvars.iv.next, %wide.trip.count
  br i1 %exitcond.not, label %._crit_edge, label %.lr.ph, !llvm.loop !56

._crit_edge.loopexit.split.loop.exit16:           ; preds = %.lr.ph
  %19 = trunc nuw nsw i64 %indvars.iv to i32
  br label %._crit_edge

._crit_edge:                                      ; preds = %18, %._crit_edge.loopexit.split.loop.exit16, %2
  %.0 = phi i32 [ -1, %2 ], [ %19, %._crit_edge.loopexit.split.loop.exit16 ], [ -1, %18 ]
  ret i32 %.0
}